target datalayout = "e-m:e-p270:32:32-p271:32:32-p272:64:64-i64:64-i128:128-f80:128-n8:16:32:64-S128"
target triple = "x86_64-pc-linux-gnu"

%struct._zval_struct = type { %union._zend_value, %union.anon, %union.anon.3 }
%union._zend_value = type { i64 }
%union.anon = type { i32 }
%union.anon.3 = type { i32 }
%struct._zend_op_array = type { i8, [3 x i8], i32, ptr, ptr, ptr, i32, i32, ptr, ptr, ptr, ptr, i32, ptr, i32, i32, i32, ptr, ptr, ptr, ptr, ptr, i32, i32, ptr, ptr, ptr, i32, i32, i32, i32, ptr, ptr, [6 x ptr] }
%struct._zend_op = type { ptr, %union._znode_op, %union._znode_op, %union._znode_op, i32, i32, i8, i8, i8, i8 }
%union._znode_op = type { i32 }
%struct._zend_array = type { %struct._zend_refcounted_h, %union.anon.5, i32, %union.anon.7, i32, i32, i32, i32, i64, ptr }
%struct._zend_refcounted_h = type { i32, %union.anon.4 }
%union.anon.4 = type { i32 }
%union.anon.5 = type { i32 }
%union.anon.7 = type { ptr }
%struct.anon.1 = type { i8, i8, %union.anon.2 }
%union.anon.2 = type { i16 }

; Function Attrs: alwaysinline nounwind uwtable
define internal zeroext i8 @zval_get_type(ptr noundef %0) #1 {
  %2 = alloca ptr, align 8
  store ptr %0, ptr %2, align 8, !tbaa !9
  %3 = load ptr, ptr %2, align 8, !tbaa !9
  %4 = getelementptr inbounds nuw %struct._zval_struct, ptr %3, i32 0, i32 1
  %5 = getelementptr inbounds nuw %struct.anon.1, ptr %4, i32 0, i32 0
  %6 = load i8, ptr %5, align 8, !tbaa !17
  ret i8 %6
}

; Function Attrs: nounwind uwtable
define hidden void @zend_optimizer_shift_jump(ptr noundef %0, ptr noundef %1, ptr noundef %2) #0 {
  %4 = alloca ptr, align 8
  %5 = alloca ptr, align 8
  %6 = alloca ptr, align 8
  %7 = alloca ptr, align 8
  %8 = alloca ptr, align 8
  %9 = alloca ptr, align 8
  %10 = alloca i32, align 4
  %11 = alloca i64, align 8
  %12 = alloca ptr, align 8
  store ptr %0, ptr %4, align 8, !tbaa !98
  store ptr %1, ptr %5, align 8, !tbaa !100
  store ptr %2, ptr %6, align 8, !tbaa !128
  %13 = load ptr, ptr %5, align 8, !tbaa !100
  %14 = getelementptr inbounds nuw %struct._zend_op, ptr %13, i32 0, i32 6
  %15 = load i8, ptr %14, align 4, !tbaa !102
  %16 = zext i8 %15 to i32
  switch i32 %16, label %310 [
    i32 42, label %17
    i32 162, label %17
    i32 43, label %52
    i32 44, label %52
    i32 46, label %52
    i32 47, label %52
    i32 77, label %52
    i32 125, label %52
    i32 152, label %52
    i32 169, label %52
    i32 151, label %52
    i32 198, label %52
    i32 203, label %52
    i32 208, label %52
    i32 107, label %87
    i32 78, label %129
    i32 126, label %129
    i32 187, label %172
    i32 188, label %172
    i32 195, label %172
  ]

17:                                               ; preds = %3, %3
  br label %18

18:                                               ; preds = %17
  %19 = load ptr, ptr %5, align 8, !tbaa !100
  %20 = load ptr, ptr %5, align 8, !tbaa !100
  %21 = getelementptr inbounds nuw %struct._zend_op, ptr %20, i32 0, i32 1
  %22 = load i32, ptr %21, align 8, !tbaa !17
  %23 = sext i32 %22 to i64
  %24 = getelementptr inbounds i8, ptr %19, i64 %23
  %25 = load ptr, ptr %6, align 8, !tbaa !128
  %26 = load ptr, ptr %5, align 8, !tbaa !100
  %27 = load ptr, ptr %5, align 8, !tbaa !100
  %28 = getelementptr inbounds nuw %struct._zend_op, ptr %27, i32 0, i32 1
  %29 = load i32, ptr %28, align 8, !tbaa !17
  %30 = sext i32 %29 to i64
  %31 = getelementptr inbounds i8, ptr %26, i64 %30
  %32 = load ptr, ptr %4, align 8, !tbaa !98
  %33 = getelementptr inbounds nuw %struct._zend_op_array, ptr %32, i32 0, i32 17
  %34 = load ptr, ptr %33, align 8, !tbaa !119
  %35 = ptrtoint ptr %31 to i64
  %36 = ptrtoint ptr %34 to i64
  %37 = sub i64 %35, %36
  %38 = sdiv exact i64 %37, 32
  %39 = getelementptr inbounds i32, ptr %25, i64 %38
  %40 = load i32, ptr %39, align 4, !tbaa !29
  %41 = zext i32 %40 to i64
  %42 = sub i64 0, %41
  %43 = getelementptr inbounds %struct._zend_op, ptr %24, i64 %42
  %44 = load ptr, ptr %5, align 8, !tbaa !100
  %45 = ptrtoint ptr %43 to i64
  %46 = ptrtoint ptr %44 to i64
  %47 = sub i64 %45, %46
  %48 = trunc i64 %47 to i32
  %49 = load ptr, ptr %5, align 8, !tbaa !100
  %50 = getelementptr inbounds nuw %struct._zend_op, ptr %49, i32 0, i32 1
  store i32 %48, ptr %50, align 8, !tbaa !17
  br label %51

51:                                               ; preds = %18
  br label %310

52:                                               ; preds = %3, %3, %3, %3, %3, %3, %3, %3, %3, %3, %3, %3
  br label %53

53:                                               ; preds = %52
  %54 = load ptr, ptr %5, align 8, !tbaa !100
  %55 = load ptr, ptr %5, align 8, !tbaa !100
  %56 = getelementptr inbounds nuw %struct._zend_op, ptr %55, i32 0, i32 2
  %57 = load i32, ptr %56, align 4, !tbaa !17
  %58 = sext i32 %57 to i64
  %59 = getelementptr inbounds i8, ptr %54, i64 %58
  %60 = load ptr, ptr %6, align 8, !tbaa !128
  %61 = load ptr, ptr %5, align 8, !tbaa !100
  %62 = load ptr, ptr %5, align 8, !tbaa !100
  %63 = getelementptr inbounds nuw %struct._zend_op, ptr %62, i32 0, i32 2
  %64 = load i32, ptr %63, align 4, !tbaa !17
  %65 = sext i32 %64 to i64
  %66 = getelementptr inbounds i8, ptr %61, i64 %65
  %67 = load ptr, ptr %4, align 8, !tbaa !98
  %68 = getelementptr inbounds nuw %struct._zend_op_array, ptr %67, i32 0, i32 17
  %69 = load ptr, ptr %68, align 8, !tbaa !119
  %70 = ptrtoint ptr %66 to i64
  %71 = ptrtoint ptr %69 to i64
  %72 = sub i64 %70, %71
  %73 = sdiv exact i64 %72, 32
  %74 = getelementptr inbounds i32, ptr %60, i64 %73
  %75 = load i32, ptr %74, align 4, !tbaa !29
  %76 = zext i32 %75 to i64
  %77 = sub i64 0, %76
  %78 = getelementptr inbounds %struct._zend_op, ptr %59, i64 %77
  %79 = load ptr, ptr %5, align 8, !tbaa !100
  %80 = ptrtoint ptr %78 to i64
  %81 = ptrtoint ptr %79 to i64
  %82 = sub i64 %80, %81
  %83 = trunc i64 %82 to i32
  %84 = load ptr, ptr %5, align 8, !tbaa !100
  %85 = getelementptr inbounds nuw %struct._zend_op, ptr %84, i32 0, i32 2
  store i32 %83, ptr %85, align 4, !tbaa !17
  br label %86

86:                                               ; preds = %53
  br label %310

87:                                               ; preds = %3
  %88 = load ptr, ptr %5, align 8, !tbaa !100
  %89 = getelementptr inbounds nuw %struct._zend_op, ptr %88, i32 0, i32 4
  %90 = load i32, ptr %89, align 4, !tbaa !105
  %91 = and i32 %90, 1
  %92 = icmp ne i32 %91, 0
  br i1 %92, label %128, label %93

93:                                               ; preds = %87
  br label %94

94:                                               ; preds = %93
  %95 = load ptr, ptr %5, align 8, !tbaa !100
  %96 = load ptr, ptr %5, align 8, !tbaa !100
  %97 = getelementptr inbounds nuw %struct._zend_op, ptr %96, i32 0, i32 2
  %98 = load i32, ptr %97, align 4, !tbaa !17
  %99 = sext i32 %98 to i64
  %100 = getelementptr inbounds i8, ptr %95, i64 %99
  %101 = load ptr, ptr %6, align 8, !tbaa !128
  %102 = load ptr, ptr %5, align 8, !tbaa !100
  %103 = load ptr, ptr %5, align 8, !tbaa !100
  %104 = getelementptr inbounds nuw %struct._zend_op, ptr %103, i32 0, i32 2
  %105 = load i32, ptr %104, align 4, !tbaa !17
  %106 = sext i32 %105 to i64
  %107 = getelementptr inbounds i8, ptr %102, i64 %106
  %108 = load ptr, ptr %4, align 8, !tbaa !98
  %109 = getelementptr inbounds nuw %struct._zend_op_array, ptr %108, i32 0, i32 17
  %110 = load ptr, ptr %109, align 8, !tbaa !119
  %111 = ptrtoint ptr %107 to i64
  %112 = ptrtoint ptr %110 to i64
  %113 = sub i64 %111, %112
  %114 = sdiv exact i64 %113, 32
  %115 = getelementptr inbounds i32, ptr %101, i64 %114
  %116 = load i32, ptr %115, align 4, !tbaa !29
  %117 = zext i32 %116 to i64
  %118 = sub i64 0, %117
  %119 = getelementptr inbounds %struct._zend_op, ptr %100, i64 %118
  %120 = load ptr, ptr %5, align 8, !tbaa !100
  %121 = ptrtoint ptr %119 to i64
  %122 = ptrtoint ptr %120 to i64
  %123 = sub i64 %121, %122
  %124 = trunc i64 %123 to i32
  %125 = load ptr, ptr %5, align 8, !tbaa !100
  %126 = getelementptr inbounds nuw %struct._zend_op, ptr %125, i32 0, i32 2
  store i32 %124, ptr %126, align 4, !tbaa !17
  br label %127

127:                                              ; preds = %94
  br label %128

128:                                              ; preds = %127, %87
  br label %310

129:                                              ; preds = %3, %3
  %130 = load ptr, ptr %4, align 8, !tbaa !98
  %131 = getelementptr inbounds nuw %struct._zend_op_array, ptr %130, i32 0, i32 17
  %132 = load ptr, ptr %131, align 8, !tbaa !119
  %133 = load ptr, ptr %5, align 8, !tbaa !100
  %134 = load ptr, ptr %5, align 8, !tbaa !100
  %135 = getelementptr inbounds nuw %struct._zend_op, ptr %134, i32 0, i32 4
  %136 = load i32, ptr %135, align 4, !tbaa !105
  %137 = sext i32 %136 to i64
  %138 = getelementptr inbounds i8, ptr %133, i64 %137
  %139 = load ptr, ptr %4, align 8, !tbaa !98
  %140 = getelementptr inbounds nuw %struct._zend_op_array, ptr %139, i32 0, i32 17
  %141 = load ptr, ptr %140, align 8, !tbaa !119
  %142 = ptrtoint ptr %138 to i64
  %143 = ptrtoint ptr %141 to i64
  %144 = sub i64 %142, %143
  %145 = sdiv exact i64 %144, 32
  %146 = load ptr, ptr %6, align 8, !tbaa !128
  %147 = load ptr, ptr %5, align 8, !tbaa !100
  %148 = load ptr, ptr %5, align 8, !tbaa !100
  %149 = getelementptr inbounds nuw %struct._zend_op, ptr %148, i32 0, i32 4
  %150 = load i32, ptr %149, align 4, !tbaa !105
  %151 = sext i32 %150 to i64
  %152 = getelementptr inbounds i8, ptr %147, i64 %151
  %153 = load ptr, ptr %4, align 8, !tbaa !98
  %154 = getelementptr inbounds nuw %struct._zend_op_array, ptr %153, i32 0, i32 17
  %155 = load ptr, ptr %154, align 8, !tbaa !119
  %156 = ptrtoint ptr %152 to i64
  %157 = ptrtoint ptr %155 to i64
  %158 = sub i64 %156, %157
  %159 = sdiv exact i64 %158, 32
  %160 = getelementptr inbounds i32, ptr %146, i64 %159
  %161 = load i32, ptr %160, align 4, !tbaa !29
  %162 = zext i32 %161 to i64
  %163 = sub nsw i64 %145, %162
  %164 = getelementptr inbounds %struct._zend_op, ptr %132, i64 %163
  %165 = load ptr, ptr %5, align 8, !tbaa !100
  %166 = ptrtoint ptr %164 to i64
  %167 = ptrtoint ptr %165 to i64
  %168 = sub i64 %166, %167
  %169 = trunc i64 %168 to i32
  %170 = load ptr, ptr %5, align 8, !tbaa !100
  %171 = getelementptr inbounds nuw %struct._zend_op, ptr %170, i32 0, i32 4
  store i32 %169, ptr %171, align 4, !tbaa !105
  br label %310

172:                                              ; preds = %3, %3, %3
  call void @llvm.lifetime.start.p0(i64 8, ptr %7) #13
  %173 = load ptr, ptr %4, align 8, !tbaa !98
  %174 = getelementptr inbounds nuw %struct._zend_op_array, ptr %173, i32 0, i32 31
  %175 = load ptr, ptr %174, align 8, !tbaa !106
  %176 = load ptr, ptr %5, align 8, !tbaa !100
  %177 = getelementptr inbounds nuw %struct._zend_op, ptr %176, i32 0, i32 2
  %178 = load i32, ptr %177, align 4, !tbaa !17
  %179 = zext i32 %178 to i64
  %180 = getelementptr inbounds nuw %struct._zval_struct, ptr %175, i64 %179
  %181 = getelementptr inbounds nuw %struct._zval_struct, ptr %180, i32 0, i32 0
  %182 = load ptr, ptr %181, align 8, !tbaa !17
  store ptr %182, ptr %7, align 8, !tbaa !96
  call void @llvm.lifetime.start.p0(i64 8, ptr %8) #13
  br label %183

183:                                              ; preds = %172
  call void @llvm.lifetime.start.p0(i64 8, ptr %9) #13
  %184 = load ptr, ptr %7, align 8, !tbaa !96
  store ptr %184, ptr %9, align 8, !tbaa !96
  call void @llvm.lifetime.start.p0(i64 4, ptr %10) #13
  %185 = load ptr, ptr %9, align 8, !tbaa !96
  %186 = getelementptr inbounds nuw %struct._zend_array, ptr %185, i32 0, i32 4
  %187 = load i32, ptr %186, align 8, !tbaa !127
  store i32 %187, ptr %10, align 4, !tbaa !29
  call void @llvm.lifetime.start.p0(i64 8, ptr %11) #13
  %188 = load ptr, ptr %9, align 8, !tbaa !96
  %189 = getelementptr inbounds nuw %struct._zend_array, ptr %188, i32 0, i32 1
  %190 = load i32, ptr %189, align 8, !tbaa !17
  %191 = xor i32 %190, -1
  %192 = and i32 %191, 4
  %193 = zext i32 %192 to i64
  %194 = mul i64 %193, 4
  %195 = add i64 16, %194
  store i64 %195, ptr %11, align 8, !tbaa !20
  call void @llvm.lifetime.start.p0(i64 8, ptr %12) #13
  %196 = load ptr, ptr %9, align 8, !tbaa !96
  %197 = getelementptr inbounds nuw %struct._zend_array, ptr %196, i32 0, i32 3
  %198 = load ptr, ptr %197, align 8, !tbaa !17
  store ptr %198, ptr %12, align 8, !tbaa !9
  br label %199

199:                                              ; preds = %259, %183
  %200 = load i32, ptr %10, align 4, !tbaa !29
  %201 = icmp ugt i32 %200, 0
  br i1 %201, label %202, label %265

202:                                              ; preds = %199
  %203 = load ptr, ptr %12, align 8, !tbaa !9
  %204 = call zeroext i8 @zval_get_type(ptr noundef %203)
  %205 = zext i8 %204 to i32
  %206 = icmp eq i32 %205, 0
  %207 = xor i1 %206, true
  %208 = xor i1 %207, true
  %209 = zext i1 %208 to i32
  %210 = sext i32 %209 to i64
  %211 = call i64 @llvm.expect.i64(i64 %210, i64 0)
  %212 = icmp ne i64 %211, 0
  br i1 %212, label %213, label %214

213:                                              ; preds = %202
  br label %259

214:                                              ; preds = %202
  %215 = load ptr, ptr %12, align 8, !tbaa !9
  store ptr %215, ptr %8, align 8, !tbaa !9
  %216 = load ptr, ptr %4, align 8, !tbaa !98
  %217 = getelementptr inbounds nuw %struct._zend_op_array, ptr %216, i32 0, i32 17
  %218 = load ptr, ptr %217, align 8, !tbaa !119
  %219 = load ptr, ptr %5, align 8, !tbaa !100
  %220 = load ptr, ptr %8, align 8, !tbaa !9
  %221 = getelementptr inbounds nuw %struct._zval_struct, ptr %220, i32 0, i32 0
  %222 = load i64, ptr %221, align 8, !tbaa !17
  %223 = trunc i64 %222 to i32
  %224 = sext i32 %223 to i64
  %225 = getelementptr inbounds i8, ptr %219, i64 %224
  %226 = load ptr, ptr %4, align 8, !tbaa !98
  %227 = getelementptr inbounds nuw %struct._zend_op_array, ptr %226, i32 0, i32 17
  %228 = load ptr, ptr %227, align 8, !tbaa !119
  %229 = ptrtoint ptr %225 to i64
  %230 = ptrtoint ptr %228 to i64
  %231 = sub i64 %229, %230
  %232 = sdiv exact i64 %231, 32
  %233 = load ptr, ptr %6, align 8, !tbaa !128
  %234 = load ptr, ptr %5, align 8, !tbaa !100
  %235 = load ptr, ptr %8, align 8, !tbaa !9
  %236 = getelementptr inbounds nuw %struct._zval_struct, ptr %235, i32 0, i32 0
  %237 = load i64, ptr %236, align 8, !tbaa !17
  %238 = trunc i64 %237 to i32
  %239 = sext i32 %238 to i64
  %240 = getelementptr inbounds i8, ptr %234, i64 %239
  %241 = load ptr, ptr %4, align 8, !tbaa !98
  %242 = getelementptr inbounds nuw %struct._zend_op_array, ptr %241, i32 0, i32 17
  %243 = load ptr, ptr %242, align 8, !tbaa !119
  %244 = ptrtoint ptr %240 to i64
  %245 = ptrtoint ptr %243 to i64
  %246 = sub i64 %244, %245
  %247 = sdiv exact i64 %246, 32
  %248 = getelementptr inbounds i32, ptr %233, i64 %247
  %249 = load i32, ptr %248, align 4, !tbaa !29
  %250 = zext i32 %249 to i64
  %251 = sub nsw i64 %232, %250
  %252 = getelementptr inbounds %struct._zend_op, ptr %218, i64 %251
  %253 = load ptr, ptr %5, align 8, !tbaa !100
  %254 = ptrtoint ptr %252 to i64
  %255 = ptrtoint ptr %253 to i64
  %256 = sub i64 %254, %255
  %257 = load ptr, ptr %8, align 8, !tbaa !9
  %258 = getelementptr inbounds nuw %struct._zval_struct, ptr %257, i32 0, i32 0
  store i64 %256, ptr %258, align 8, !tbaa !17
  br label %259

259:                                              ; preds = %214, %213
  %260 = load ptr, ptr %12, align 8, !tbaa !9
  %261 = load i64, ptr %11, align 8, !tbaa !20
  %262 = getelementptr inbounds nuw i8, ptr %260, i64 %261
  store ptr %262, ptr %12, align 8, !tbaa !9
  %263 = load i32, ptr %10, align 4, !tbaa !29
  %264 = add i32 %263, -1
  store i32 %264, ptr %10, align 4, !tbaa !29
  br label %199

265:                                              ; preds = %199
  call void @llvm.lifetime.end.p0(i64 8, ptr %12) #13
  call void @llvm.lifetime.end.p0(i64 8, ptr %11) #13
  call void @llvm.lifetime.end.p0(i64 4, ptr %10) #13
  call void @llvm.lifetime.end.p0(i64 8, ptr %9) #13
  br label %266

266:                                              ; preds = %265
  br label %267

267:                                              ; preds = %266
  %268 = load ptr, ptr %4, align 8, !tbaa !98
  %269 = getelementptr inbounds nuw %struct._zend_op_array, ptr %268, i32 0, i32 17
  %270 = load ptr, ptr %269, align 8, !tbaa !119
  %271 = load ptr, ptr %5, align 8, !tbaa !100
  %272 = load ptr, ptr %5, align 8, !tbaa !100
  %273 = getelementptr inbounds nuw %struct._zend_op, ptr %272, i32 0, i32 4
  %274 = load i32, ptr %273, align 4, !tbaa !105
  %275 = sext i32 %274 to i64
  %276 = getelementptr inbounds i8, ptr %271, i64 %275
  %277 = load ptr, ptr %4, align 8, !tbaa !98
  %278 = getelementptr inbounds nuw %struct._zend_op_array, ptr %277, i32 0, i32 17
  %279 = load ptr, ptr %278, align 8, !tbaa !119
  %280 = ptrtoint ptr %276 to i64
  %281 = ptrtoint ptr %279 to i64
  %282 = sub i64 %280, %281
  %283 = sdiv exact i64 %282, 32
  %284 = load ptr, ptr %6, align 8, !tbaa !128
  %285 = load ptr, ptr %5, align 8, !tbaa !100
  %286 = load ptr, ptr %5, align 8, !tbaa !100
  %287 = getelementptr inbounds nuw %struct._zend_op, ptr %286, i32 0, i32 4
  %288 = load i32, ptr %287, align 4, !tbaa !105
  %289 = sext i32 %288 to i64
  %290 = getelementptr inbounds i8, ptr %285, i64 %289
  %291 = load ptr, ptr %4, align 8, !tbaa !98
  %292 = getelementptr inbounds nuw %struct._zend_op_array, ptr %291, i32 0, i32 17
  %293 = load ptr, ptr %292, align 8, !tbaa !119
  %294 = ptrtoint ptr %290 to i64
  %295 = ptrtoint ptr %293 to i64
  %296 = sub i64 %294, %295
  %297 = sdiv exact i64 %296, 32
  %298 = getelementptr inbounds i32, ptr %284, i64 %297
  %299 = load i32, ptr %298, align 4, !tbaa !29
  %300 = zext i32 %299 to i64
  %301 = sub nsw i64 %283, %300
  %302 = getelementptr inbounds %struct._zend_op, ptr %270, i64 %301
  %303 = load ptr, ptr %5, align 8, !tbaa !100
  %304 = ptrtoint ptr %302 to i64
  %305 = ptrtoint ptr %303 to i64
  %306 = sub i64 %304, %305
  %307 = trunc i64 %306 to i32
  %308 = load ptr, ptr %5, align 8, !tbaa !100
  %309 = getelementptr inbounds nuw %struct._zend_op, ptr %308, i32 0, i32 4
  store i32 %307, ptr %309, align 4, !tbaa !105
  call void @llvm.lifetime.end.p0(i64 8, ptr %8) #13
  call void @llvm.lifetime.end.p0(i64 8, ptr %7) #13
  br label %310

310:                                              ; preds = %3, %267, %129, %128, %86, %51
  ret void
}